; Function Attrs: nounwind sspstrong uwtable
define internal range(i32 0, 7) i32 @m_wday(ptr noundef captures(none) %0) #0 {
  %2 = tail call fastcc i32 @m_local_jd(ptr noundef %0)
  %3 = icmp slt i32 %2, -1
  br i1 %3, label %4, label %8

4:                                                ; preds = %1
  %5 = sub nuw nsw i32 -2, %2
  %6 = urem i32 %5, 7
  %7 = sub nuw nsw i32 6, %6
  br label %c_jd_to_wday.exit

8:                                                ; preds = %1
  %9 = add nsw i32 %2, 1
  %10 = urem i32 %9, 7
  br label %c_jd_to_wday.exit

c_jd_to_wday.exit:                                ; preds = %4, %8
  %11 = phi i32 [ %7, %4 ], [ %10, %8 ]
  ret i32 %11
}